target datalayout = "e-m:e-p270:32:32-p271:32:32-p272:64:64-i64:64-i128:128-f80:128-n8:16:32:64-S128"
target triple = "x86_64-pc-linux-gnu"

%"class.std::__cxx11::_List_base" = type { %"struct.std::__cxx11::_List_base<Assimp::TTUpdateInfo, std::allocator<Assimp::TTUpdateInfo>>::_List_impl" }
%"struct.std::__cxx11::_List_base<Assimp::TTUpdateInfo, std::allocator<Assimp::TTUpdateInfo>>::_List_impl" = type { %"struct.std::__detail::_List_node_header" }
%"struct.std::__detail::_List_node_header" = type { %"struct.std::__detail::_List_node_base", i64 }
%"struct.std::__detail::_List_node_base" = type { ptr, ptr }
%"struct.std::_List_const_iterator" = type { ptr }
%"struct.Assimp::TTUpdateInfo" = type { ptr, ptr, i32, i32 }
%"struct.std::_List_node" = type { %"struct.std::__detail::_List_node_base", %"struct.__gnu_cxx::__aligned_membuf" }
%"struct.__gnu_cxx::__aligned_membuf" = type { [24 x i8] }

@.str.9 = private unnamed_addr constant [12 x i8] c"$tex.uvwsrc\00", align 1

; Function Attrs: mustprogress nounwind uwtable
define linkonce_odr hidden noundef ptr @_ZNK9__gnu_cxx16__aligned_membufIN6Assimp12TTUpdateInfoEE7_M_addrEv(ptr noundef nonnull align 8 dereferenceable(24) %0) #0 comdat align 2 {
  %2 = alloca ptr, align 8
  store ptr %0, ptr %2, align 8
  %3 = load ptr, ptr %2, align 8
  %4 = getelementptr inbounds nuw %"struct.__gnu_cxx::__aligned_membuf", ptr %3, i32 0, i32 0
  ret ptr %4
}

; Function Attrs: mustprogress nounwind uwtable
define linkonce_odr hidden noundef ptr @_ZNK9__gnu_cxx16__aligned_membufIN6Assimp12TTUpdateInfoEE6_M_ptrEv(ptr noundef nonnull align 8 dereferenceable(24) %0) #0 comdat align 2 {
  %2 = alloca ptr, align 8
  store ptr %0, ptr %2, align 8
  %3 = load ptr, ptr %2, align 8
  %4 = call noundef ptr @_ZNK9__gnu_cxx16__aligned_membufIN6Assimp12TTUpdateInfoEE7_M_addrEv(ptr noundef nonnull align 8 dereferenceable(24) %3) #18
  ret ptr %4
}

; Function Attrs: noinline noreturn nounwind uwtable
define linkonce_odr hidden void @__clang_call_terminate(ptr noundef %0) #14 comdat {
  %2 = call ptr @__cxa_begin_catch(ptr %0) #18
  call void @_ZSt9terminatev() #19
  unreachable
}

; Function Attrs: mustprogress nounwind uwtable
define linkonce_odr hidden noundef ptr @_ZNKSt10_List_nodeIN6Assimp12TTUpdateInfoEE9_M_valptrEv(ptr noundef nonnull align 8 dereferenceable(40) %0) #0 comdat align 2 {
  %2 = alloca ptr, align 8
  store ptr %0, ptr %2, align 8
  %3 = load ptr, ptr %2, align 8
  %4 = getelementptr inbounds nuw %"struct.std::_List_node", ptr %3, i32 0, i32 1
  %5 = call noundef ptr @_ZNK9__gnu_cxx16__aligned_membufIN6Assimp12TTUpdateInfoEE6_M_ptrEv(ptr noundef nonnull align 8 dereferenceable(24) %4) #18
  ret ptr %5
}

; Function Attrs: mustprogress nounwind uwtable
define linkonce_odr hidden void @_ZNSt20_List_const_iteratorIN6Assimp12TTUpdateInfoEEC2EPKNSt8__detail15_List_node_baseE(ptr noundef nonnull align 8 dereferenceable(8) %0, ptr noundef %1) unnamed_addr #0 comdat align 2 {
  %3 = alloca ptr, align 8
  %4 = alloca ptr, align 8
  store ptr %0, ptr %3, align 8
  store ptr %1, ptr %4, align 8
  %5 = load ptr, ptr %3, align 8
  %6 = getelementptr inbounds nuw %"struct.std::_List_const_iterator", ptr %5, i32 0, i32 0
  %7 = load ptr, ptr %4, align 8
  store ptr %7, ptr %6, align 8
  ret void
}

; Function Attrs: mustprogress nounwind uwtable
define linkonce_odr hidden noundef nonnull align 8 dereferenceable(8) ptr @_ZNSt20_List_const_iteratorIN6Assimp12TTUpdateInfoEEppEv(ptr noundef nonnull align 8 dereferenceable(8) %0) #0 comdat align 2 {
  %2 = alloca ptr, align 8
  store ptr %0, ptr %2, align 8
  %3 = load ptr, ptr %2, align 8
  %4 = getelementptr inbounds nuw %"struct.std::_List_const_iterator", ptr %3, i32 0, i32 0
  %5 = load ptr, ptr %4, align 8
  %6 = getelementptr inbounds nuw %"struct.std::__detail::_List_node_base", ptr %5, i32 0, i32 0
  %7 = load ptr, ptr %6, align 8
  %8 = getelementptr inbounds nuw %"struct.std::_List_const_iterator", ptr %3, i32 0, i32 0
  store ptr %7, ptr %8, align 8
  ret ptr %3
}

; Function Attrs: inlinehint mustprogress uwtable
define linkonce_odr noundef i32 @_ZN10aiMaterial11AddPropertyIiEE8aiReturnPKT_jPKcjj(ptr noundef nonnull align 8 dereferenceable(16) %0, ptr noundef %1, i32 noundef %2, ptr noundef %3, i32 noundef %4, i32 noundef %5) #7 comdat align 2 {
  %7 = alloca ptr, align 8
  %8 = alloca ptr, align 8
  %9 = alloca i32, align 4
  %10 = alloca ptr, align 8
  %11 = alloca i32, align 4
  %12 = alloca i32, align 4
  store ptr %0, ptr %7, align 8
  store ptr %1, ptr %8, align 8
  store i32 %2, ptr %9, align 4
  store ptr %3, ptr %10, align 8
  store i32 %4, ptr %11, align 4
  store i32 %5, ptr %12, align 4
  %13 = load ptr, ptr %7, align 8
  %14 = load ptr, ptr %8, align 8
  %15 = load i32, ptr %9, align 4
  %16 = zext i32 %15 to i64
  %17 = mul i64 %16, 4
  %18 = trunc i64 %17 to i32
  %19 = load ptr, ptr %10, align 8
  %20 = load i32, ptr %11, align 4
  %21 = load i32, ptr %12, align 4
  %22 = call noundef i32 @_ZN10aiMaterial17AddBinaryPropertyEPKvjPKcjj18aiPropertyTypeInfo(ptr noundef nonnull align 8 dereferenceable(16) %13, ptr noundef %14, i32 noundef %18, ptr noundef %19, i32 noundef %20, i32 noundef %21, i32 noundef 4)
  ret i32 %22
}

; Function Attrs: mustprogress nounwind uwtable
define linkonce_odr hidden noundef nonnull align 8 dereferenceable(24) ptr @_ZNKSt20_List_const_iteratorIN6Assimp12TTUpdateInfoEEdeEv(ptr noundef nonnull align 8 dereferenceable(8) %0) #0 comdat align 2 personality ptr @__gxx_personality_v0 {
  %2 = alloca ptr, align 8
  store ptr %0, ptr %2, align 8
  %3 = load ptr, ptr %2, align 8
  %4 = getelementptr inbounds nuw %"struct.std::_List_const_iterator", ptr %3, i32 0, i32 0
  %5 = load ptr, ptr %4, align 8
  %6 = invoke noundef ptr @_ZNKSt10_List_nodeIN6Assimp12TTUpdateInfoEE9_M_valptrEv(ptr noundef nonnull align 8 dereferenceable(40) %5)
          to label %7 unwind label %8

7:                                                ; preds = %1
  ret ptr %6

8:                                                ; preds = %1
  %9 = landingpad { ptr, i32 }
          catch ptr null
  %10 = extractvalue { ptr, i32 } %9, 0
  call void @__clang_call_terminate(ptr %10) #19
  unreachable
}

; Function Attrs: mustprogress nounwind uwtable
define linkonce_odr noundef zeroext i1 @_ZStneRKSt20_List_const_iteratorIN6Assimp12TTUpdateInfoEES4_(ptr noundef nonnull align 8 dereferenceable(8) %0, ptr noundef nonnull align 8 dereferenceable(8) %1) #0 comdat {
  %3 = alloca ptr, align 8
  %4 = alloca ptr, align 8
  store ptr %0, ptr %3, align 8
  store ptr %1, ptr %4, align 8
  %5 = load ptr, ptr %3, align 8
  %6 = getelementptr inbounds nuw %"struct.std::_List_const_iterator", ptr %5, i32 0, i32 0
  %7 = load ptr, ptr %6, align 8
  %8 = load ptr, ptr %4, align 8
  %9 = getelementptr inbounds nuw %"struct.std::_List_const_iterator", ptr %8, i32 0, i32 0
  %10 = load ptr, ptr %9, align 8
  %11 = icmp ne ptr %7, %10
  ret i1 %11
}

; Function Attrs: mustprogress nounwind uwtable
define linkonce_odr hidden ptr @_ZNKSt7__cxx114listIN6Assimp12TTUpdateInfoESaIS2_EE3endEv(ptr noundef nonnull align 8 dereferenceable(24) %0) #0 comdat align 2 {
  %2 = alloca %"struct.std::_List_const_iterator", align 8
  %3 = alloca ptr, align 8
  store ptr %0, ptr %3, align 8
  %4 = load ptr, ptr %3, align 8
  %5 = getelementptr inbounds nuw %"class.std::__cxx11::_List_base", ptr %4, i32 0, i32 0
  %6 = getelementptr inbounds nuw %"struct.std::__cxx11::_List_base<Assimp::TTUpdateInfo, std::allocator<Assimp::TTUpdateInfo>>::_List_impl", ptr %5, i32 0, i32 0
  call void @_ZNSt20_List_const_iteratorIN6Assimp12TTUpdateInfoEEC2EPKNSt8__detail15_List_node_baseE(ptr noundef nonnull align 8 dereferenceable(8) %2, ptr noundef %6) #18
  %7 = getelementptr inbounds nuw %"struct.std::_List_const_iterator", ptr %2, i32 0, i32 0
  %8 = load ptr, ptr %7, align 8
  ret ptr %8
}

; Function Attrs: mustprogress nounwind uwtable
define linkonce_odr hidden ptr @_ZNKSt7__cxx114listIN6Assimp12TTUpdateInfoESaIS2_EE5beginEv(ptr noundef nonnull align 8 dereferenceable(24) %0) #0 comdat align 2 {
  %2 = alloca %"struct.std::_List_const_iterator", align 8
  %3 = alloca ptr, align 8
  store ptr %0, ptr %3, align 8
  %4 = load ptr, ptr %3, align 8
  %5 = getelementptr inbounds nuw %"class.std::__cxx11::_List_base", ptr %4, i32 0, i32 0
  %6 = getelementptr inbounds nuw %"struct.std::__cxx11::_List_base<Assimp::TTUpdateInfo, std::allocator<Assimp::TTUpdateInfo>>::_List_impl", ptr %5, i32 0, i32 0
  %7 = getelementptr inbounds nuw %"struct.std::__detail::_List_node_base", ptr %6, i32 0, i32 0
  %8 = load ptr, ptr %7, align 8
  call void @_ZNSt20_List_const_iteratorIN6Assimp12TTUpdateInfoEEC2EPKNSt8__detail15_List_node_baseE(ptr noundef nonnull align 8 dereferenceable(8) %2, ptr noundef %8) #18
  %9 = getelementptr inbounds nuw %"struct.std::_List_const_iterator", ptr %2, i32 0, i32 0
  %10 = load ptr, ptr %9, align 8
  ret ptr %10
}

; Function Attrs: mustprogress uwtable
define hidden void @_Z13UpdateUVIndexRKNSt7__cxx114listIN6Assimp12TTUpdateInfoESaIS2_EEEj(ptr noundef nonnull align 8 dereferenceable(24) %0, i32 noundef %1) #2 {
  %3 = alloca ptr, align 8
  %4 = alloca i32, align 4
  %5 = alloca %"struct.std::_List_const_iterator", align 8
  %6 = alloca %"struct.std::_List_const_iterator", align 8
  %7 = alloca ptr, align 8
  store ptr %0, ptr %3, align 8
  store i32 %1, ptr %4, align 4
  call void @llvm.lifetime.start.p0(i64 8, ptr %5) #18
  %8 = load ptr, ptr %3, align 8
  %9 = call ptr @_ZNKSt7__cxx114listIN6Assimp12TTUpdateInfoESaIS2_EE5beginEv(ptr noundef nonnull align 8 dereferenceable(24) %8) #18
  %10 = getelementptr inbounds nuw %"struct.std::_List_const_iterator", ptr %5, i32 0, i32 0
  store ptr %9, ptr %10, align 8
  br label %11

11:                                               ; preds = %44, %2
  call void @llvm.lifetime.start.p0(i64 8, ptr %6) #18
  %12 = load ptr, ptr %3, align 8
  %13 = call ptr @_ZNKSt7__cxx114listIN6Assimp12TTUpdateInfoESaIS2_EE3endEv(ptr noundef nonnull align 8 dereferenceable(24) %12) #18
  %14 = getelementptr inbounds nuw %"struct.std::_List_const_iterator", ptr %6, i32 0, i32 0
  store ptr %13, ptr %14, align 8
  %15 = call noundef zeroext i1 @_ZStneRKSt20_List_const_iteratorIN6Assimp12TTUpdateInfoEES4_(ptr noundef nonnull align 8 dereferenceable(8) %5, ptr noundef nonnull align 8 dereferenceable(8) %6) #18
  call void @llvm.lifetime.end.p0(i64 8, ptr %6) #18
  br i1 %15, label %17, label %16

16:                                               ; preds = %11
  call void @llvm.lifetime.end.p0(i64 8, ptr %5) #18
  br label %46

17:                                               ; preds = %11
  call void @llvm.lifetime.start.p0(i64 8, ptr %7) #18
  %18 = call noundef nonnull align 8 dereferenceable(24) ptr @_ZNKSt20_List_const_iteratorIN6Assimp12TTUpdateInfoEEdeEv(ptr noundef nonnull align 8 dereferenceable(8) %5) #18
  store ptr %18, ptr %7, align 8
  %19 = load ptr, ptr %7, align 8
  %20 = getelementptr inbounds nuw %"struct.Assimp::TTUpdateInfo", ptr %19, i32 0, i32 0
  %21 = load ptr, ptr %20, align 8
  %22 = icmp ne ptr %21, null
  br i1 %22, label %23, label %28

23:                                               ; preds = %17
  %24 = load i32, ptr %4, align 4
  %25 = load ptr, ptr %7, align 8
  %26 = getelementptr inbounds nuw %"struct.Assimp::TTUpdateInfo", ptr %25, i32 0, i32 0
  %27 = load ptr, ptr %26, align 8
  store i32 %24, ptr %27, align 4
  br label %43

28:                                               ; preds = %17
  %29 = load i32, ptr %4, align 4
  %30 = icmp ne i32 %29, 0
  br i1 %30, label %42, label %31

31:                                               ; preds = %28
  %32 = load ptr, ptr %7, align 8
  %33 = getelementptr inbounds nuw %"struct.Assimp::TTUpdateInfo", ptr %32, i32 0, i32 1
  %34 = load ptr, ptr %33, align 8
  %35 = load ptr, ptr %7, align 8
  %36 = getelementptr inbounds nuw %"struct.Assimp::TTUpdateInfo", ptr %35, i32 0, i32 2
  %37 = load i32, ptr %36, align 8
  %38 = load ptr, ptr %7, align 8
  %39 = getelementptr inbounds nuw %"struct.Assimp::TTUpdateInfo", ptr %38, i32 0, i32 3
  %40 = load i32, ptr %39, align 4
  %41 = call noundef i32 @_ZN10aiMaterial11AddPropertyIiEE8aiReturnPKT_jPKcjj(ptr noundef nonnull align 8 dereferenceable(16) %34, ptr noundef %4, i32 noundef 1, ptr noundef @.str.9, i32 noundef %37, i32 noundef %40)
  br label %42

42:                                               ; preds = %31, %28
  br label %43

43:                                               ; preds = %42, %23
  call void @llvm.lifetime.end.p0(i64 8, ptr %7) #18
  br label %44

44:                                               ; preds = %43
  %45 = call noundef nonnull align 8 dereferenceable(8) ptr @_ZNSt20_List_const_iteratorIN6Assimp12TTUpdateInfoEEppEv(ptr noundef nonnull align 8 dereferenceable(8) %5) #18
  br label %11, !llvm.loop !3

46:                                               ; preds = %16
  ret void
}