; Function Attrs: mustprogress uwtable
define hidden void @_Z13UpdateUVIndexRKNSt7__cxx114listIN6Assimp12TTUpdateInfoESaIS2_EEEj(ptr noundef nonnull readonly align 8 captures(address) dereferenceable(24) %0, i32 noundef %1) local_unnamed_addr #3 personality ptr @__gxx_personality_v0 {
  %3 = alloca i32, align 4
  store i32 %1, ptr %3, align 4
  %.sroa.08.012 = load ptr, ptr %0, align 8
  %.not1113 = icmp eq ptr %.sroa.08.012, %0
  br i1 %.not1113, label %._crit_edge, label %.lr.ph

._crit_edge:                                      ; preds = %17, %2
  ret void

.lr.ph:                                           ; preds = %2, %17
  %.sroa.08.014 = phi ptr [ %.sroa.08.0, %17 ], [ %.sroa.08.012, %2 ]
  %4 = getelementptr inbounds nuw i8, ptr %.sroa.08.014, i64 16
  %5 = load ptr, ptr %4, align 8
  %.not = icmp eq ptr %5, null
  %6 = load i32, ptr %3, align 4
  br i1 %.not, label %8, label %7

7:                                                ; preds = %.lr.ph
  store i32 %6, ptr %5, align 4
  br label %17

8:                                                ; preds = %.lr.ph
  %.not7 = icmp eq i32 %6, 0
  br i1 %.not7, label %9, label %17

9:                                                ; preds = %8
  %10 = getelementptr inbounds nuw i8, ptr %.sroa.08.014, i64 24
  %11 = load ptr, ptr %10, align 8
  %12 = getelementptr inbounds nuw i8, ptr %.sroa.08.014, i64 32
  %13 = load i32, ptr %12, align 8
  %14 = getelementptr inbounds nuw i8, ptr %.sroa.08.014, i64 36
  %15 = load i32, ptr %14, align 4
  %16 = call noundef i32 @_ZN10aiMaterial17AddBinaryPropertyEPKvjPKcjj18aiPropertyTypeInfo(ptr noundef nonnull align 8 dereferenceable(16) %11, ptr noundef nonnull %3, i32 noundef 4, ptr noundef nonnull @.str.9, i32 noundef %13, i32 noundef %15, i32 noundef 4)
  br label %17

17:                                               ; preds = %8, %9, %7
  %.sroa.08.0 = load ptr, ptr %.sroa.08.014, align 8
  %.not11 = icmp eq ptr %.sroa.08.0, %0
  br i1 %.not11, label %._crit_edge, label %.lr.ph, !llvm.loop !16
}